(dp0
S'params1'
p1
S''
p2
sS'engine'
p3
S'internal'
p4
sS'run'
p5
I00
sS'method1'
p6
S'pseudo-log-likelihood'
p7
sS'geometry'
p8
V765x656+601+23
p9
sS'db'
p10
S'toxic_complete.db'
p11
sS'priorStdDev'
p12
S'100'
p13
sS'mln'
p14
S'toxic_complete.mln'
p15
sS'output_filename'
p16
S'wts.pypll.toxic_complete-toxic_complete.mln'
p17
sS'pattern'
p18
g2
sS'addUnitClauses'
p19
I0
sS'nePreds'
p20
g2
sS'mln_filename'
p21
S'./toxic_complete.db'
p22
sS'usePrior'
p23
I0
s.