(dp0
S'engine'
p1
S'internal'
p2
sS'params0'
p3
S''
p4
sS'run'
p5
I00
sS'method0'
p6
S'pseudo-log-likelihood via BFGS'
p7
sS'priorStdDev'
p8
S'100'
p9
sS'geometry'
p10
V779x656+242+23
p11
sS'db'
p12
S'sample.db'
p13
sS'method1'
p14
S'pseudo-log-likelihood with blocking'
p15
sS'mln'
p16
S'logic.mln'
p17
sS'output_filename'
p18
S'wts.pybpll.sample-logic.mln'
p19
sS'params1'
p20
g4
sS'pattern'
p21
g4
sS'addUnitClauses'
p22
I0
sS'nePreds'
p23
g4
sS'usePrior'
p24
I0
s.