(dp0
S'engine'
p1
S'internal'
p2
sS'params1'
p3
S''
p4
sS'run'
p5
I00
sS'method1'
p6
S'pseudo-log-likelihood'
p7
sS'geometry'
p8
V779x903+47+63
p9
sS'mln'
p10
S'logic.mln'
p11
sS'priorStdDev'
p12
S'100'
p13
sS'db'
p14
S'world-train.db'
p15
sS'output_filename'
p16
S'wts.pypll.world-train-logic.mln'
p17
sS'pattern'
p18
S'*.db'
p19
sS'addUnitClauses'
p20
I0
sS'nePreds'
p21
g4
sS'usePrior'
p22
I0
s.