(dp0
S'noPMW'
p1
I00
sS'numChains'
p2
S'1'
p3
sS'mln_rename'
p4
I0
sS'output_filename'
p5
S'last-part-of-fellow-test-pypll.world-train-pure-logic.results'
p6
sS'queryByDB'
p7
(dp8
S'world-test-given-to-fellows.db'
p9
S'cholinergic,anticholinergic, sedative_hypnotic, sympathomimetic, opioid, serotonin_syndrome'
p10
sS'short-test-fellows.db'
p11
S'anticholinergic, sedative_hypnotic, sympathomimetic, opioid, serotonin_syndrome'
p12
sS'last-part-of-fellow-test.db'
p13
S'cholinergic, anticholinergic, sedative_hypnotic, sympathomimetic, opioid, serotonin_syndrome'
p14
sS'small-ss.db'
p15
S'sympathomimetic, serotonin_syndrome'
p16
sS'half-of-fellow-test.db'
p17
S'cholinergic, anticholinergic, sedative_hypnotic, sympathomimetic, opioid, serotonin_syndrome'
p18
sS'small-sympathomimetic.db'
p19
S'sympathomimetic'
p20
sS'second-third-of-fellow-test.db'
p21
S'cholinergic, anticholinergic, sedative_hypnotic, sympathomimetic, opioid, serotonin_syndrome'
p22
sS'world-train-given-to-fellows.db'
p23
S'cholinergic,anticholinergic, sedative_hypnotic, sympathomimetic, opioid, serotonin_syndrome'
p24
sS'world-test.db'
p25
S'cholinergic, anticholinergic, sedative_hypnotic, sympathomimetic, opioid, serotonin_syndrome'
p26
ssS'maxSteps'
p27
S'200'
p28
sS'query'
p29
g14
sS'params1'
p30
S''
p31
sS'db_rename'
p32
I0
sS'engine'
p33
S'PyMLNs'
p34
sS'run'
p35
I00
sS'method1'
p36
S'MC-SAT'
p37
sS'db'
p38
S'last-part-of-fellow-test.db'
p39
sS'emlnByDB'
p40
(dp41
g9
g31
sg11
g31
sg13
g31
sg15
g31
sg17
g31
sg19
g31
sg21
g31
sg23
g31
sg25
g31
ssS'useEMLN'
p42
I0
sS'cwPreds'
p43
g31
sS'convertAlchemy'
p44
I1
sS'geometry'
p45
V757x656+538+23
p46
sS'mln'
p47
S'wts.pypll.world-train-pure-logic.mln'
p48
sS'openWorld'
p49
I1
sS'saveResults'
p50
I1
sS'qf'
p51
g31
s.